target datalayout = "e-m:e-p270:32:32-p271:32:32-p272:64:64-i64:64-i128:128-f80:128-n8:16:32:64-S128"
target triple = "x86_64-pc-linux-gnu"

%"class.gmx::Options" = type { %"class.gmx::IOptionsContainerWithSections", %"class.std::unique_ptr.13" }
%"class.gmx::IOptionsContainerWithSections" = type { %"class.gmx::IOptionsContainer" }
%"class.gmx::IOptionsContainer" = type { ptr }
%"class.std::unique_ptr.13" = type { %"struct.std::__uniq_ptr_data.14" }
%"struct.std::__uniq_ptr_data.14" = type { %"class.std::__uniq_ptr_impl.15" }
%"class.std::__uniq_ptr_impl.15" = type { %"class.std::tuple.16" }
%"class.std::tuple.16" = type { %"struct.std::_Tuple_impl.17" }
%"struct.std::_Tuple_impl.17" = type { %"struct.std::_Head_base.20" }
%"struct.std::_Head_base.20" = type { ptr }
%"class.std::vector" = type { %"struct.std::_Vector_base" }
%"struct.std::_Vector_base" = type { %"struct.std::_Vector_base<std::__cxx11::basic_string<char>, std::allocator<std::__cxx11::basic_string<char>>>::_Vector_impl" }
%"struct.std::_Vector_base<std::__cxx11::basic_string<char>, std::allocator<std::__cxx11::basic_string<char>>>::_Vector_impl" = type { %"struct.std::_Vector_base<std::__cxx11::basic_string<char>, std::allocator<std::__cxx11::basic_string<char>>>::_Vector_impl_data" }
%"struct.std::_Vector_base<std::__cxx11::basic_string<char>, std::allocator<std::__cxx11::basic_string<char>>>::_Vector_impl_data" = type { ptr, ptr, ptr }
%"class.gmx::CommandLineCommonOptionsHolder" = type <{ %"class.gmx::Options", %"class.gmx::BinaryInformationSettings", i8, i8, i8, i8, i8, [3 x i8], i32, i8, i8, i8, i8, i32, [4 x i8] }>
%"class.gmx::BinaryInformationSettings" = type { i8, i8, i8, i8, ptr, ptr }
%"class.gmx::(anonymous namespace)::IHelpExport" = type { ptr }
%"class.gmx::(anonymous namespace)::HelpExportCompletion" = type { %"class.gmx::(anonymous namespace)::IHelpExport", %"class.gmx::ShellCompletionWriter", %"class.std::vector" }
%"class.gmx::ShellCompletionWriter" = type { %"class.std::unique_ptr.153" }
%"class.std::unique_ptr.153" = type { %"struct.std::__uniq_ptr_data.154" }
%"struct.std::__uniq_ptr_data.154" = type { %"class.std::__uniq_ptr_impl.155" }
%"class.std::__uniq_ptr_impl.155" = type { %"class.std::tuple.156" }
%"class.std::tuple.156" = type { %"struct.std::_Tuple_impl.157" }
%"struct.std::_Tuple_impl.157" = type { %"struct.std::_Head_base.160" }
%"struct.std::_Head_base.160" = type { ptr }

; Function Attrs: mustprogress nounwind uwtable
define linkonce_odr noundef ptr @_ZN3gmx30CommandLineCommonOptionsHolder7optionsEv(ptr noundef nonnull align 8 dereferenceable(60) %0) #0 comdat align 2 {
  %2 = alloca ptr, align 8
  store ptr %0, ptr %2, align 8
  %3 = load ptr, ptr %2, align 8
  %4 = getelementptr inbounds %"class.gmx::CommandLineCommonOptionsHolder", ptr %3, i32 0, i32 0
  ret ptr %4
}

; Function Attrs: mustprogress uwtable
define internal void @_ZN3gmx12_GLOBAL__N_120HelpExportCompletion18finishModuleExportEv(ptr noundef nonnull align 8 dereferenceable(40) %0) unnamed_addr #1 align 2 personality ptr @__gxx_personality_v0 {
  %2 = alloca ptr, align 8
  %3 = alloca %"class.gmx::CommandLineCommonOptionsHolder", align 8
  %4 = alloca ptr, align 8
  %5 = alloca i32, align 4
  store ptr %0, ptr %2, align 8
  %6 = load ptr, ptr %2, align 8
  call void @_ZN3gmx30CommandLineCommonOptionsHolderC1Ev(ptr noundef nonnull align 8 dereferenceable(60) %3)
  invoke void @_ZN3gmx30CommandLineCommonOptionsHolder11initOptionsEv(ptr noundef nonnull align 8 dereferenceable(60) %3)
          to label %7 unwind label %14

7:                                                ; preds = %1
  %8 = getelementptr inbounds %"class.gmx::(anonymous namespace)::HelpExportCompletion", ptr %6, i32 0, i32 1
  %9 = getelementptr inbounds %"class.gmx::(anonymous namespace)::HelpExportCompletion", ptr %6, i32 0, i32 2
  %10 = call noundef ptr @_ZN3gmx30CommandLineCommonOptionsHolder7optionsEv(ptr noundef nonnull align 8 dereferenceable(60) %3)
  invoke void @_ZN3gmx21ShellCompletionWriter23writeWrapperCompletionsERKSt6vectorINSt7__cxx1112basic_stringIcSt11char_traitsIcESaIcEEESaIS7_EERKNS_7OptionsE(ptr noundef nonnull align 8 dereferenceable(8) %8, ptr noundef nonnull align 8 dereferenceable(24) %9, ptr noundef nonnull align 8 dereferenceable(16) %10)
          to label %11 unwind label %14

11:                                               ; preds = %7
  %12 = getelementptr inbounds %"class.gmx::(anonymous namespace)::HelpExportCompletion", ptr %6, i32 0, i32 1
  invoke void @_ZN3gmx21ShellCompletionWriter17finishCompletionsEv(ptr noundef nonnull align 8 dereferenceable(8) %12)
          to label %13 unwind label %14

13:                                               ; preds = %11
  call void @_ZN3gmx30CommandLineCommonOptionsHolderD1Ev(ptr noundef nonnull align 8 dereferenceable(60) %3) #14
  ret void

14:                                               ; preds = %11, %7, %1
  %15 = landingpad { ptr, i32 }
          cleanup
  %16 = extractvalue { ptr, i32 } %15, 0
  store ptr %16, ptr %4, align 8
  %17 = extractvalue { ptr, i32 } %15, 1
  store i32 %17, ptr %5, align 4
  call void @_ZN3gmx30CommandLineCommonOptionsHolderD1Ev(ptr noundef nonnull align 8 dereferenceable(60) %3) #14
  br label %18

18:                                               ; preds = %14
  %19 = load ptr, ptr %4, align 8
  %20 = load i32, ptr %5, align 4
  %21 = insertvalue { ptr, i32 } poison, ptr %19, 0
  %22 = insertvalue { ptr, i32 } %21, i32 %20, 1
  resume { ptr, i32 } %22
}