; Function Attrs: mustprogress uwtable
define internal void @_ZN3gmx12_GLOBAL__N_120HelpExportCompletion18finishModuleExportEv(ptr noundef nonnull align 8 dereferenceable(40) %0) unnamed_addr #1 align 2 personality ptr @__gxx_personality_v0 {
  %2 = alloca %"class.gmx::CommandLineCommonOptionsHolder", align 8
  call void @_ZN3gmx30CommandLineCommonOptionsHolderC1Ev(ptr noundef nonnull align 8 dereferenceable(60) %2)
  invoke void @_ZN3gmx30CommandLineCommonOptionsHolder11initOptionsEv(ptr noundef nonnull align 8 dereferenceable(60) %2)
          to label %3 unwind label %8

3:                                                ; preds = %1
  %4 = getelementptr inbounds i8, ptr %0, i64 8
  %5 = getelementptr inbounds i8, ptr %0, i64 16
  invoke void @_ZN3gmx21ShellCompletionWriter23writeWrapperCompletionsERKSt6vectorINSt7__cxx1112basic_stringIcSt11char_traitsIcESaIcEEESaIS7_EERKNS_7OptionsE(ptr noundef nonnull align 8 dereferenceable(8) %4, ptr noundef nonnull align 8 dereferenceable(24) %5, ptr noundef nonnull align 8 dereferenceable(16) %2)
          to label %6 unwind label %8

6:                                                ; preds = %3
  invoke void @_ZN3gmx21ShellCompletionWriter17finishCompletionsEv(ptr noundef nonnull align 8 dereferenceable(8) %4)
          to label %7 unwind label %8

7:                                                ; preds = %6
  call void @_ZN3gmx30CommandLineCommonOptionsHolderD1Ev(ptr noundef nonnull align 8 dereferenceable(60) %2) #19
  ret void

8:                                                ; preds = %6, %3, %1
  %9 = landingpad { ptr, i32 }
          cleanup
  call void @_ZN3gmx30CommandLineCommonOptionsHolderD1Ev(ptr noundef nonnull align 8 dereferenceable(60) %2) #19
  resume { ptr, i32 } %9
}